target datalayout = "e-m:e-p270:32:32-p271:32:32-p272:64:64-i64:64-i128:128-f80:128-n8:16:32:64-S128"
target triple = "x86_64-pc-linux-gnu"

%struct._lv_matrix_t = type { [3 x [3 x float]] }

; Function Attrs: nounwind uwtable
define void @lv_matrix_identity(ptr noundef %0) #0 {
  %2 = alloca ptr, align 8
  store ptr %0, ptr %2, align 8, !tbaa !3
  %3 = load ptr, ptr %2, align 8, !tbaa !3
  %4 = getelementptr inbounds nuw %struct._lv_matrix_t, ptr %3, i32 0, i32 0
  %5 = getelementptr inbounds [3 x [3 x float]], ptr %4, i64 0, i64 0
  %6 = getelementptr inbounds [3 x float], ptr %5, i64 0, i64 0
  store float 1.000000e+00, ptr %6, align 4, !tbaa !7
  %7 = load ptr, ptr %2, align 8, !tbaa !3
  %8 = getelementptr inbounds nuw %struct._lv_matrix_t, ptr %7, i32 0, i32 0
  %9 = getelementptr inbounds [3 x [3 x float]], ptr %8, i64 0, i64 0
  %10 = getelementptr inbounds [3 x float], ptr %9, i64 0, i64 1
  store float 0.000000e+00, ptr %10, align 4, !tbaa !7
  %11 = load ptr, ptr %2, align 8, !tbaa !3
  %12 = getelementptr inbounds nuw %struct._lv_matrix_t, ptr %11, i32 0, i32 0
  %13 = getelementptr inbounds [3 x [3 x float]], ptr %12, i64 0, i64 0
  %14 = getelementptr inbounds [3 x float], ptr %13, i64 0, i64 2
  store float 0.000000e+00, ptr %14, align 4, !tbaa !7
  %15 = load ptr, ptr %2, align 8, !tbaa !3
  %16 = getelementptr inbounds nuw %struct._lv_matrix_t, ptr %15, i32 0, i32 0
  %17 = getelementptr inbounds [3 x [3 x float]], ptr %16, i64 0, i64 1
  %18 = getelementptr inbounds [3 x float], ptr %17, i64 0, i64 0
  store float 0.000000e+00, ptr %18, align 4, !tbaa !7
  %19 = load ptr, ptr %2, align 8, !tbaa !3
  %20 = getelementptr inbounds nuw %struct._lv_matrix_t, ptr %19, i32 0, i32 0
  %21 = getelementptr inbounds [3 x [3 x float]], ptr %20, i64 0, i64 1
  %22 = getelementptr inbounds [3 x float], ptr %21, i64 0, i64 1
  store float 1.000000e+00, ptr %22, align 4, !tbaa !7
  %23 = load ptr, ptr %2, align 8, !tbaa !3
  %24 = getelementptr inbounds nuw %struct._lv_matrix_t, ptr %23, i32 0, i32 0
  %25 = getelementptr inbounds [3 x [3 x float]], ptr %24, i64 0, i64 1
  %26 = getelementptr inbounds [3 x float], ptr %25, i64 0, i64 2
  store float 0.000000e+00, ptr %26, align 4, !tbaa !7
  %27 = load ptr, ptr %2, align 8, !tbaa !3
  %28 = getelementptr inbounds nuw %struct._lv_matrix_t, ptr %27, i32 0, i32 0
  %29 = getelementptr inbounds [3 x [3 x float]], ptr %28, i64 0, i64 2
  %30 = getelementptr inbounds [3 x float], ptr %29, i64 0, i64 0
  store float 0.000000e+00, ptr %30, align 4, !tbaa !7
  %31 = load ptr, ptr %2, align 8, !tbaa !3
  %32 = getelementptr inbounds nuw %struct._lv_matrix_t, ptr %31, i32 0, i32 0
  %33 = getelementptr inbounds [3 x [3 x float]], ptr %32, i64 0, i64 2
  %34 = getelementptr inbounds [3 x float], ptr %33, i64 0, i64 1
  store float 0.000000e+00, ptr %34, align 4, !tbaa !7
  %35 = load ptr, ptr %2, align 8, !tbaa !3
  %36 = getelementptr inbounds nuw %struct._lv_matrix_t, ptr %35, i32 0, i32 0
  %37 = getelementptr inbounds [3 x [3 x float]], ptr %36, i64 0, i64 2
  %38 = getelementptr inbounds [3 x float], ptr %37, i64 0, i64 2
  store float 1.000000e+00, ptr %38, align 4, !tbaa !7
  ret void
}