; Function Attrs: mustprogress nofree norecurse nosync nounwind willreturn memory(argmem: write) uwtable
define void @lv_matrix_identity(ptr nocapture noundef writeonly %0) local_unnamed_addr #0 {
  store float 1.000000e+00, ptr %0, align 4, !tbaa !3
  %2 = getelementptr inbounds i8, ptr %0, i64 4
  store float 0.000000e+00, ptr %2, align 4, !tbaa !3
  %3 = getelementptr inbounds i8, ptr %0, i64 8
  store float 0.000000e+00, ptr %3, align 4, !tbaa !3
  %4 = getelementptr inbounds i8, ptr %0, i64 12
  store float 0.000000e+00, ptr %4, align 4, !tbaa !3
  %5 = getelementptr inbounds i8, ptr %0, i64 16
  store float 1.000000e+00, ptr %5, align 4, !tbaa !3
  %6 = getelementptr inbounds i8, ptr %0, i64 20
  store float 0.000000e+00, ptr %6, align 4, !tbaa !3
  %7 = getelementptr inbounds i8, ptr %0, i64 24
  store float 0.000000e+00, ptr %7, align 4, !tbaa !3
  %8 = getelementptr inbounds i8, ptr %0, i64 28
  store float 0.000000e+00, ptr %8, align 4, !tbaa !3
  %9 = getelementptr inbounds i8, ptr %0, i64 32
  store float 1.000000e+00, ptr %9, align 4, !tbaa !3
  ret void
}